target datalayout = "e-m:e-p270:32:32-p271:32:32-p272:64:64-i64:64-i128:128-f80:128-n8:16:32:64-S128"
target triple = "x86_64-pc-linux-gnu"

; Function Attrs: mustprogress nounwind uwtable
define dso_local void @_Z13btVectorScalePfPKfi(ptr noundef %0, ptr noundef %1, i32 noundef %2) #1 {
  %4 = alloca ptr, align 8
  %5 = alloca ptr, align 8
  %6 = alloca i32, align 4
  %7 = alloca i32, align 4
  store ptr %0, ptr %4, align 8, !tbaa !12
  store ptr %1, ptr %5, align 8, !tbaa !12
  store i32 %2, ptr %6, align 4, !tbaa !9
  call void @llvm.lifetime.start.p0(i64 4, ptr %7) #9
  store i32 0, ptr %7, align 4, !tbaa !9
  br label %8

8:                                                ; preds = %25, %3
  %9 = load i32, ptr %7, align 4, !tbaa !9
  %10 = load i32, ptr %6, align 4, !tbaa !9
  %11 = icmp slt i32 %9, %10
  br i1 %11, label %13, label %12

12:                                               ; preds = %8
  call void @llvm.lifetime.end.p0(i64 4, ptr %7) #9
  br label %28

13:                                               ; preds = %8
  %14 = load ptr, ptr %5, align 8, !tbaa !12
  %15 = load i32, ptr %7, align 4, !tbaa !9
  %16 = sext i32 %15 to i64
  %17 = getelementptr inbounds float, ptr %14, i64 %16
  %18 = load float, ptr %17, align 4, !tbaa !14
  %19 = load ptr, ptr %4, align 8, !tbaa !12
  %20 = load i32, ptr %7, align 4, !tbaa !9
  %21 = sext i32 %20 to i64
  %22 = getelementptr inbounds float, ptr %19, i64 %21
  %23 = load float, ptr %22, align 4, !tbaa !14
  %24 = fmul float %23, %18
  store float %24, ptr %22, align 4, !tbaa !14
  br label %25

25:                                               ; preds = %13
  %26 = load i32, ptr %7, align 4, !tbaa !9
  %27 = add nsw i32 %26, 1
  store i32 %27, ptr %7, align 4, !tbaa !9
  br label %8, !llvm.loop !40

28:                                               ; preds = %12
  ret void
}